(dp0
S'being'
p1
(iknowledge
ref
p2
(dp3
S'name'
p4
S'be'
p5
sbsS'over'
p6
ccopy_reg
_reconstructor
p7
(cknowledge
word
p8
c__builtin__
object
p9
Ntp10
Rp11
(dp12
S'type'
p13
S'p'
p14
sg4
g6
sbsS'through'
p15
g7
(g8
g9
Ntp16
Rp17
(dp18
g13
g14
sg4
g15
sbsS'before'
p19
g7
(g8
g9
Ntp20
Rp21
(dp22
g13
g14
sg4
g19
sbsS'in place of'
p23
g7
(g8
g9
Ntp24
Rp25
(dp26
g13
g14
sg4
g23
sbsS'as to'
p27
g7
(g8
g9
Ntp28
Rp29
(dp30
g13
g14
sg4
g27
sbsS'except'
p31
g7
(g8
g9
Ntp32
Rp33
(dp34
g13
g14
sg4
g31
sbsS'to'
p35
g7
(g8
g9
Ntp36
Rp37
(dp38
g13
g14
sg4
g35
sbsS'ahead of'
p39
g7
(g8
g9
Ntp40
Rp41
(dp42
g13
g14
sg4
g39
sbsS'under'
p43
g7
(g8
g9
Ntp44
Rp45
(dp46
g13
g14
sg4
g43
sbsS'with regard to'
p47
g7
(g8
g9
Ntp48
Rp49
(dp50
g13
g14
sg4
g47
sbsS'save'
p51
g7
(g8
g9
Ntp52
Rp53
(dp54
g13
g14
sg4
g51
sbsS'them'
p55
g7
(g8
g9
Ntp56
Rp57
(dp58
g13
S'r'
p59
sg4
g55
sbsS'his'
p60
g7
(g8
g9
Ntp61
Rp62
(dp63
g13
S'a'
p64
sg4
g60
sbsS'around'
p65
g7
(g8
g9
Ntp66
Rp67
(dp68
g13
g14
sg4
g65
sbsS'outside'
p69
g7
(g8
g9
Ntp70
Rp71
(dp72
g13
g14
sg4
g69
sbsS'underneath'
p73
g7
(g8
g9
Ntp74
Rp75
(dp76
g13
g14
sg4
g73
sbsS'they'
p77
g7
(g8
g9
Ntp78
Rp79
(dp80
g13
g59
sg4
g77
sbsS'despite'
p81
g7
(g8
g9
Ntp82
Rp83
(dp84
g13
g14
sg4
g81
sbsS'during'
p85
g7
(g8
g9
Ntp86
Rp87
(dp88
g13
g14
sg4
g85
sbsS'him'
p89
g7
(g8
g9
Ntp90
Rp91
(dp92
g13
g59
sg4
g89
sbsS'on behalf of'
p93
g7
(g8
g9
Ntp94
Rp95
(dp96
g13
g14
sg4
g93
sbsS'like'
p97
g7
(g8
g9
Ntp98
Rp99
(dp100
g13
g14
sg4
g97
sbsS'aside from'
p101
g7
(g8
g9
Ntp102
Rp103
(dp104
g13
g14
sg4
g101
sbsS'she'
p105
g7
(g8
g9
Ntp106
Rp107
(dp108
g13
g59
sg4
g105
sbsS'beneath'
p109
g7
(g8
g9
Ntp110
Rp111
(dp112
g13
g14
sg4
g109
sbsS'round'
p113
g7
(g8
g9
Ntp114
Rp115
(dp116
g13
g14
sg4
g113
sbsS'because of'
p117
g7
(g8
g9
Ntp118
Rp119
(dp120
g13
g14
sg4
g117
sbsS'past'
p121
g7
(g8
g9
Ntp122
Rp123
(dp124
g13
g14
sg4
g121
sbsS'owing to'
p125
g7
(g8
g9
Ntp126
Rp127
(dp128
g13
g14
sg4
g125
sbsS'us'
p129
g7
(g8
g9
Ntp130
Rp131
(dp132
g13
g59
sg4
g129
sbsS'notwithstanding'
p133
g7
(g8
g9
Ntp134
Rp135
(dp136
g13
g14
sg4
g133
sbsS'our'
p137
g7
(g8
g9
Ntp138
Rp139
(dp140
g13
g64
sg4
g137
sbsS'beyond'
p141
g7
(g8
g9
Ntp142
Rp143
(dp144
g13
g14
sg4
g141
sbsS'out'
p145
g7
(g8
g9
Ntp146
Rp147
(dp148
g13
g14
sg4
g145
sbsS'for'
p149
g7
(g8
g9
Ntp150
Rp151
(dp152
g13
g14
sg4
g149
sbsS'since'
p153
g7
(g8
g9
Ntp154
Rp155
(dp156
g13
g14
sg4
g153
sbsS'below'
p157
g7
(g8
g9
Ntp158
Rp159
(dp160
g13
g14
sg4
g157
sbsS'subsequent to'
p161
g7
(g8
g9
Ntp162
Rp163
(dp164
g13
g14
sg4
g161
sbsS're'
p165
g7
(g8
g9
Ntp166
Rp167
(dp168
g13
g14
sg4
g165
sbsS'behind'
p169
g7
(g8
g9
Ntp170
Rp171
(dp172
g13
g14
sg4
g169
sbsS'above'
p173
g7
(g8
g9
Ntp174
Rp175
(dp176
g13
g14
sg4
g173
sbsS'between'
p177
g7
(g8
g9
Ntp178
Rp179
(dp180
g13
g14
sg4
g177
sbsS'across'
p181
g7
(g8
g9
Ntp182
Rp183
(dp184
g13
g14
sg4
g181
sbsg5
g7
(cknowledge
relation
p185
g9
Ntp186
Rp187
(dp188
S'conj'
p189
(dp190
S'ass'
p191
S'were'
p192
sS'pp'
p193
S'be'
p194
sS'g'
p195
g1
sS'ap'
p196
S'been'
p197
sS'i'
p198
S'be'
p199
sS'pts'
p200
S'is'
p201
sS'pfp'
p202
S'are'
p203
sS'pfs'
p204
S'am'
p205
sS'ats'
p206
S'was'
p207
sS'atp'
p208
S'were'
p209
sS'pss'
p210
S'are'
p211
sS'ptp'
p212
S'are'
p213
sS'afp'
p214
S'were'
p215
sS'afs'
p216
S'was'
p217
ssS'args'
p218
(dp219
sg13
S'v'
p220
sg4
g5
sbsS'we'
p221
g7
(g8
g9
Ntp222
Rp223
(dp224
g13
g59
sg4
g221
sbsS'in addition to'
p225
g7
(g8
g9
Ntp226
Rp227
(dp228
g13
g14
sg4
g225
sbsg192
(iknowledge
ref
p229
(dp230
g4
g5
sbsS'instead of'
p231
g7
(g8
g9
Ntp232
Rp233
(dp234
g13
g14
sg4
g231
sbsS'in case of'
p235
g7
(g8
g9
Ntp236
Rp237
(dp238
g13
g14
sg4
g235
sbsS'besides'
p239
g7
(g8
g9
Ntp240
Rp241
(dp242
g13
g14
sg4
g239
sbsS'along'
p243
g7
(g8
g9
Ntp244
Rp245
(dp246
g13
g14
sg4
g243
sbsS'by'
p247
g7
(g8
g9
Ntp248
Rp249
(dp250
g13
g14
sg4
g247
sbsS'on'
p251
g7
(g8
g9
Ntp252
Rp253
(dp254
g13
g14
sg4
g251
sbsS'about'
p255
g7
(g8
g9
Ntp256
Rp257
(dp258
g13
g14
sg4
g255
sbsS'inside of'
p259
g7
(g8
g9
Ntp260
Rp261
(dp262
g13
g14
sg4
g259
sbsS'of'
p263
g7
(g8
g9
Ntp264
Rp265
(dp266
g13
g14
sg4
g263
sbsS'against'
p267
g7
(g8
g9
Ntp268
Rp269
(dp270
g13
g14
sg4
g267
sbsS'times'
p271
g7
(g8
g9
Ntp272
Rp273
(dp274
g13
g14
sg4
g271
sbsS'plus'
p275
g7
(g8
g9
Ntp276
Rp277
(dp278
g13
g14
sg4
g275
sbsS'aboard'
p279
g7
(g8
g9
Ntp280
Rp281
(dp282
g13
g14
sg4
g279
sbsS'onto'
p283
g7
(g8
g9
Ntp284
Rp285
(dp286
g13
g14
sg4
g283
sbsS'among'
p287
g7
(g8
g9
Ntp288
Rp289
(dp290
g13
g14
sg4
g287
sbsS'via'
p291
g7
(g8
g9
Ntp292
Rp293
(dp294
g13
g14
sg4
g291
sbsS'into'
p295
g7
(g8
g9
Ntp296
Rp297
(dp298
g13
g14
sg4
g295
sbsS'within'
p299
g7
(g8
g9
Ntp300
Rp301
(dp302
g13
g14
sg4
g299
sbsS'down'
p303
g7
(g8
g9
Ntp304
Rp305
(dp306
g13
g14
sg4
g303
sbsS'according to'
p307
g7
(g8
g9
Ntp308
Rp309
(dp310
g13
g14
sg4
g307
sbsg197
(iknowledge
ref
p311
(dp312
g4
g5
sbsS'outside of'
p313
g7
(g8
g9
Ntp314
Rp315
(dp316
g13
g14
sg4
g313
sbsS'throughout'
p317
g7
(g8
g9
Ntp318
Rp319
(dp320
g13
g14
sg4
g317
sbsS'your'
p321
g7
(g8
g9
Ntp322
Rp323
(dp324
g13
g64
sg4
g321
sbsS'from'
p325
g7
(g8
g9
Ntp326
Rp327
(dp328
g13
g14
sg4
g325
sbsS'her'
p329
g7
(g8
g9
Ntp330
Rp331
(dp332
g13
g59
sg4
g329
sbsS'amidst'
p333
g7
(g8
g9
Ntp334
Rp335
(dp336
g13
g14
sg4
g333
sbsS'next'
p337
g7
(g8
g9
Ntp338
Rp339
(dp340
g13
g14
sg4
g337
sbsS'their'
p341
g7
(g8
g9
Ntp342
Rp343
(dp344
g13
g64
sg4
g341
sbsg207
(iknowledge
ref
p345
(dp346
g4
g5
sbsS'until'
p347
g7
(g8
g9
Ntp348
Rp349
(dp350
g13
g14
sg4
g347
sbsS'as well as'
p351
g7
(g8
g9
Ntp352
Rp353
(dp354
g13
g14
sg4
g351
sbsS'atop'
p355
g7
(g8
g9
Ntp356
Rp357
(dp358
g13
g14
sg4
g355
sbsS'in accordance with'
p359
g7
(g8
g9
Ntp360
Rp361
(dp362
g13
g14
sg4
g359
sbsS'amongst'
p363
g7
(g8
g9
Ntp364
Rp365
(dp366
g13
g14
sg4
g363
sbsS'next to'
p367
g7
(g8
g9
Ntp368
Rp369
(dp370
g13
g14
sg4
g367
sbsS'with'
p371
g7
(g8
g9
Ntp372
Rp373
(dp374
g13
g14
sg4
g371
sbsS'than'
p375
g7
(g8
g9
Ntp376
Rp377
(dp378
g13
g14
sg4
g375
sbsS'he'
p379
g7
(g8
g9
Ntp380
Rp381
(dp382
g13
g59
sg4
g379
sbsS'me'
p383
g7
(g8
g9
Ntp384
Rp385
(dp386
g13
g59
sg4
g383
sbsS'absent'
p387
g7
(g8
g9
Ntp388
Rp389
(dp390
g13
g14
sg4
g387
sbsS'unlike'
p391
g7
(g8
g9
Ntp392
Rp393
(dp394
g13
g14
sg4
g391
sbsS'on to'
p395
g7
(g8
g9
Ntp396
Rp397
(dp398
g13
g14
sg4
g395
sbsS'inside'
p399
g7
(g8
g9
Ntp400
Rp401
(dp402
g13
g14
sg4
g399
sbsS'by means of'
p403
g7
(g8
g9
Ntp404
Rp405
(dp406
g13
g14
sg4
g403
sbsS'as far as'
p407
g7
(g8
g9
Ntp408
Rp409
(dp410
g13
g14
sg4
g407
sbsS'up'
p411
g7
(g8
g9
Ntp412
Rp413
(dp414
g13
g14
sg4
g411
sbsS'barring'
p415
g7
(g8
g9
Ntp416
Rp417
(dp418
g13
g14
sg4
g415
sbsS'near'
p419
g7
(g8
g9
Ntp420
Rp421
(dp422
g13
g14
sg4
g419
sbsS'due to'
p423
g7
(g8
g9
Ntp424
Rp425
(dp426
g13
g14
sg4
g423
sbsS'following'
p427
g7
(g8
g9
Ntp428
Rp429
(dp430
g13
g14
sg4
g427
sbsS'toward'
p431
g7
(g8
g9
Ntp432
Rp433
(dp434
g13
g14
sg4
g431
sbsS'my'
p435
g7
(g8
g9
Ntp436
Rp437
(dp438
g13
g64
sg4
g435
sbsS'minus'
p439
g7
(g8
g9
Ntp440
Rp441
(dp442
g13
g14
sg4
g439
sbsg203
(iknowledge
ref
p443
(dp444
g4
g5
sbsS'on account of'
p445
g7
(g8
g9
Ntp446
Rp447
(dp448
g13
g14
sg4
g445
sbsS'in spite of'
p449
g7
(g8
g9
Ntp450
Rp451
(dp452
g13
g14
sg4
g449
sbsg201
(iknowledge
ref
p453
(dp454
g4
g5
sbsS'alongside'
p455
g7
(g8
g9
Ntp456
Rp457
(dp458
g13
g14
sg4
g455
sbsg205
(iknowledge
ref
p459
(dp460
g4
g5
sbsS'it'
p461
g7
(g8
g9
Ntp462
Rp463
(dp464
g13
g59
sg4
g461
sbsS'an'
p465
g7
(g8
g9
Ntp466
Rp467
(dp468
g13
g64
sg4
g465
sbsS'as'
p469
g7
(g8
g9
Ntp470
Rp471
(dp472
g13
g14
sg4
g469
sbsS'at'
p473
g7
(g8
g9
Ntp474
Rp475
(dp476
g13
g14
sg4
g473
sbsS'in'
p477
g7
(g8
g9
Ntp478
Rp479
(dp480
g13
g14
sg4
g477
sbsS'in front of'
p481
g7
(g8
g9
Ntp482
Rp483
(dp484
g13
g14
sg4
g481
sbsS'mid'
p485
g7
(g8
g9
Ntp486
Rp487
(dp488
g13
g14
sg4
g485
sbsS'beside'
p489
g7
(g8
g9
Ntp490
Rp491
(dp492
g13
g14
sg4
g489
sbsS'till'
p493
g7
(g8
g9
Ntp494
Rp495
(dp496
g13
g14
sg4
g493
sbsS'on top of'
p497
g7
(g8
g9
Ntp498
Rp499
(dp500
g13
g14
sg4
g497
sbsS'astride'
p501
g7
(g8
g9
Ntp502
Rp503
(dp504
g13
g14
sg4
g501
sbsS'out of'
p505
g7
(g8
g9
Ntp506
Rp507
(dp508
g13
g14
sg4
g505
sbsS'you'
p509
g7
(g8
g9
Ntp510
Rp511
(dp512
g13
g59
sg4
g509
sbsS'close to'
p513
g7
(g8
g9
Ntp514
Rp515
(dp516
g13
g14
sg4
g513
sbsS'towards'
p517
g7
(g8
g9
Ntp518
Rp519
(dp520
g13
g14
sg4
g517
sbsS'opposite'
p521
g7
(g8
g9
Ntp522
Rp523
(dp524
g13
g14
sg4
g521
sbsS'after'
p525
g7
(g8
g9
Ntp526
Rp527
(dp528
g13
g14
sg4
g525
sbsS'upon'
p529
g7
(g8
g9
Ntp530
Rp531
(dp532
g13
g14
sg4
g529
sbsS'far from'
p533
g7
(g8
g9
Ntp534
Rp535
(dp536
g13
g14
sg4
g533
sbsS'in to'
p537
g7
(g8
g9
Ntp538
Rp539
(dp540
g13
g14
sg4
g537
sbsS'but'
p541
g7
(g8
g9
Ntp542
Rp543
(dp544
g13
g14
sg4
g541
sbsg64
g7
(g8
g9
Ntp545
Rp546
(dp547
g13
g64
sg4
g64
sbsS'off'
p548
g7
(g8
g9
Ntp549
Rp550
(dp551
g13
g14
sg4
g548
sbsS'prior to'
p552
g7
(g8
g9
Ntp553
Rp554
(dp555
g13
g14
sg4
g552
sbsg198
g7
(g8
g9
Ntp556
Rp557
(dp558
g13
g59
sg4
g198
sbsS'amid'
p559
g7
(g8
g9
Ntp560
Rp561
(dp562
g13
g14
sg4
g559
sbsS'failing'
p563
g7
(g8
g9
Ntp564
Rp565
(dp566
g13
g14
sg4
g563
sbsS'without'
p567
g7
(g8
g9
Ntp568
Rp569
(dp570
g13
g14
sg4
g567
sbsS'the'
p571
g7
(g8
g9
Ntp572
Rp573
(dp574
g13
g64
sg4
g571
sbsS'near to'
p575
g7
(g8
g9
Ntp576
Rp577
(dp578
g13
g14
sg4
g575
sbs.(iknowledge
knowledge
p0
(dp1
S'info'
p2
(dp3
S'being'
p4
(iknowledge
ref
p5
(dp6
S'name'
p7
S'be'
p8
sbsS'over'
p9
ccopy_reg
_reconstructor
p10
(cknowledge
word
p11
c__builtin__
object
p12
Ntp13
Rp14
(dp15
S'type'
p16
S'p'
p17
sg7
g9
sbsS'through'
p18
g10
(g11
g12
Ntp19
Rp20
(dp21
g16
g17
sg7
g18
sbsS'before'
p22
g10
(g11
g12
Ntp23
Rp24
(dp25
g16
g17
sg7
g22
sbsS'in place of'
p26
g10
(g11
g12
Ntp27
Rp28
(dp29
g16
g17
sg7
g26
sbsS'as to'
p30
g10
(g11
g12
Ntp31
Rp32
(dp33
g16
g17
sg7
g30
sbsS'except'
p34
g10
(g11
g12
Ntp35
Rp36
(dp37
g16
g17
sg7
g34
sbsS'to'
p38
g10
(g11
g12
Ntp39
Rp40
(dp41
g16
g17
sg7
g38
sbsS'ahead of'
p42
g10
(g11
g12
Ntp43
Rp44
(dp45
g16
g17
sg7
g42
sbsS'under'
p46
g10
(g11
g12
Ntp47
Rp48
(dp49
g16
g17
sg7
g46
sbsS'with regard to'
p50
g10
(g11
g12
Ntp51
Rp52
(dp53
g16
g17
sg7
g50
sbsS'save'
p54
g10
(g11
g12
Ntp55
Rp56
(dp57
g16
g17
sg7
g54
sbsS'them'
p58
g10
(g11
g12
Ntp59
Rp60
(dp61
g16
S'r'
p62
sg7
g58
sbsS'his'
p63
g10
(g11
g12
Ntp64
Rp65
(dp66
g16
S'a'
p67
sg7
g63
sbsS'around'
p68
g10
(g11
g12
Ntp69
Rp70
(dp71
g16
g17
sg7
g68
sbsS'outside'
p72
g10
(g11
g12
Ntp73
Rp74
(dp75
g16
g17
sg7
g72
sbsS'underneath'
p76
g10
(g11
g12
Ntp77
Rp78
(dp79
g16
g17
sg7
g76
sbsS'they'
p80
g10
(g11
g12
Ntp81
Rp82
(dp83
g16
g62
sg7
g80
sbsS'despite'
p84
g10
(g11
g12
Ntp85
Rp86
(dp87
g16
g17
sg7
g84
sbsS'during'
p88
g10
(g11
g12
Ntp89
Rp90
(dp91
g16
g17
sg7
g88
sbsS'him'
p92
g10
(g11
g12
Ntp93
Rp94
(dp95
g16
g62
sg7
g92
sbsS'on behalf of'
p96
g10
(g11
g12
Ntp97
Rp98
(dp99
g16
g17
sg7
g96
sbsS'like'
p100
g10
(g11
g12
Ntp101
Rp102
(dp103
g16
g17
sg7
g100
sbsS'aside from'
p104
g10
(g11
g12
Ntp105
Rp106
(dp107
g16
g17
sg7
g104
sbsS'she'
p108
g10
(g11
g12
Ntp109
Rp110
(dp111
g16
g62
sg7
g108
sbsS'beneath'
p112
g10
(g11
g12
Ntp113
Rp114
(dp115
g16
g17
sg7
g112
sbsS'round'
p116
g10
(g11
g12
Ntp117
Rp118
(dp119
g16
g17
sg7
g116
sbsS'because of'
p120
g10
(g11
g12
Ntp121
Rp122
(dp123
g16
g17
sg7
g120
sbsS'past'
p124
g10
(g11
g12
Ntp125
Rp126
(dp127
g16
g17
sg7
g124
sbsS'owing to'
p128
g10
(g11
g12
Ntp129
Rp130
(dp131
g16
g17
sg7
g128
sbsS'us'
p132
g10
(g11
g12
Ntp133
Rp134
(dp135
g16
g62
sg7
g132
sbsS'notwithstanding'
p136
g10
(g11
g12
Ntp137
Rp138
(dp139
g16
g17
sg7
g136
sbsS'our'
p140
g10
(g11
g12
Ntp141
Rp142
(dp143
g16
g67
sg7
g140
sbsS'beyond'
p144
g10
(g11
g12
Ntp145
Rp146
(dp147
g16
g17
sg7
g144
sbsS'out'
p148
g10
(g11
g12
Ntp149
Rp150
(dp151
g16
g17
sg7
g148
sbsS'for'
p152
g10
(g11
g12
Ntp153
Rp154
(dp155
g16
g17
sg7
g152
sbsS'since'
p156
g10
(g11
g12
Ntp157
Rp158
(dp159
g16
g17
sg7
g156
sbsS'below'
p160
g10
(g11
g12
Ntp161
Rp162
(dp163
g16
g17
sg7
g160
sbsS'subsequent to'
p164
g10
(g11
g12
Ntp165
Rp166
(dp167
g16
g17
sg7
g164
sbsS're'
p168
g10
(g11
g12
Ntp169
Rp170
(dp171
g16
g17
sg7
g168
sbsS'behind'
p172
g10
(g11
g12
Ntp173
Rp174
(dp175
g16
g17
sg7
g172
sbsS'above'
p176
g10
(g11
g12
Ntp177
Rp178
(dp179
g16
g17
sg7
g176
sbsS'between'
p180
g10
(g11
g12
Ntp181
Rp182
(dp183
g16
g17
sg7
g180
sbsS'across'
p184
g10
(g11
g12
Ntp185
Rp186
(dp187
g16
g17
sg7
g184
sbsg8
g10
(cknowledge
relation
p188
g12
Ntp189
Rp190
(dp191
S'conj'
p192
(dp193
S'ass'
p194
S'were'
p195
sS'pp'
p196
S'be'
p197
sS'g'
p198
g4
sS'ap'
p199
S'been'
p200
sS'i'
p201
S'be'
p202
sS'pts'
p203
S'is'
p204
sS'pfp'
p205
S'are'
p206
sS'pfs'
p207
S'am'
p208
sS'ats'
p209
S'was'
p210
sS'atp'
p211
S'were'
p212
sS'pss'
p213
S'are'
p214
sS'ptp'
p215
S'are'
p216
sS'afp'
p217
S'were'
p218
sS'afs'
p219
S'was'
p220
ssS'args'
p221
(dp222
sg16
S'v'
p223
sg7
g8
sbsS'we'
p224
g10
(g11
g12
Ntp225
Rp226
(dp227
g16
g62
sg7
g224
sbsS'in addition to'
p228
g10
(g11
g12
Ntp229
Rp230
(dp231
g16
g17
sg7
g228
sbsg195
(iknowledge
ref
p232
(dp233
g7
g8
sbsS'instead of'
p234
g10
(g11
g12
Ntp235
Rp236
(dp237
g16
g17
sg7
g234
sbsS'in case of'
p238
g10
(g11
g12
Ntp239
Rp240
(dp241
g16
g17
sg7
g238
sbsS'besides'
p242
g10
(g11
g12
Ntp243
Rp244
(dp245
g16
g17
sg7
g242
sbsS'along'
p246
g10
(g11
g12
Ntp247
Rp248
(dp249
g16
g17
sg7
g246
sbsS'by'
p250
g10
(g11
g12
Ntp251
Rp252
(dp253
g16
g17
sg7
g250
sbsS'on'
p254
g10
(g11
g12
Ntp255
Rp256
(dp257
g16
g17
sg7
g254
sbsS'about'
p258
g10
(g11
g12
Ntp259
Rp260
(dp261
g16
g17
sg7
g258
sbsS'inside of'
p262
g10
(g11
g12
Ntp263
Rp264
(dp265
g16
g17
sg7
g262
sbsS'of'
p266
g10
(g11
g12
Ntp267
Rp268
(dp269
g16
g17
sg7
g266
sbsS'against'
p270
g10
(g11
g12
Ntp271
Rp272
(dp273
g16
g17
sg7
g270
sbsS'times'
p274
g10
(g11
g12
Ntp275
Rp276
(dp277
g16
g17
sg7
g274
sbsS'plus'
p278
g10
(g11
g12
Ntp279
Rp280
(dp281
g16
g17
sg7
g278
sbsS'aboard'
p282
g10
(g11
g12
Ntp283
Rp284
(dp285
g16
g17
sg7
g282
sbsS'onto'
p286
g10
(g11
g12
Ntp287
Rp288
(dp289
g16
g17
sg7
g286
sbsS'among'
p290
g10
(g11
g12
Ntp291
Rp292
(dp293
g16
g17
sg7
g290
sbsS'via'
p294
g10
(g11
g12
Ntp295
Rp296
(dp297
g16
g17
sg7
g294
sbsS'into'
p298
g10
(g11
g12
Ntp299
Rp300
(dp301
g16
g17
sg7
g298
sbsS'within'
p302
g10
(g11
g12
Ntp303
Rp304
(dp305
g16
g17
sg7
g302
sbsS'down'
p306
g10
(g11
g12
Ntp307
Rp308
(dp309
g16
g17
sg7
g306
sbsS'according to'
p310
g10
(g11
g12
Ntp311
Rp312
(dp313
g16
g17
sg7
g310
sbsg200
(iknowledge
ref
p314
(dp315
g7
g8
sbsS'outside of'
p316
g10
(g11
g12
Ntp317
Rp318
(dp319
g16
g17
sg7
g316
sbsS'throughout'
p320
g10
(g11
g12
Ntp321
Rp322
(dp323
g16
g17
sg7
g320
sbsS'your'
p324
g10
(g11
g12
Ntp325
Rp326
(dp327
g16
g67
sg7
g324
sbsS'from'
p328
g10
(g11
g12
Ntp329
Rp330
(dp331
g16
g17
sg7
g328
sbsS'her'
p332
g10
(g11
g12
Ntp333
Rp334
(dp335
g16
g62
sg7
g332
sbsS'amidst'
p336
g10
(g11
g12
Ntp337
Rp338
(dp339
g16
g17
sg7
g336
sbsS'next'
p340
g10
(g11
g12
Ntp341
Rp342
(dp343
g16
g17
sg7
g340
sbsS'their'
p344
g10
(g11
g12
Ntp345
Rp346
(dp347
g16
g67
sg7
g344
sbsg210
(iknowledge
ref
p348
(dp349
g7
g8
sbsS'until'
p350
g10
(g11
g12
Ntp351
Rp352
(dp353
g16
g17
sg7
g350
sbsS'as well as'
p354
g10
(g11
g12
Ntp355
Rp356
(dp357
g16
g17
sg7
g354
sbsS'atop'
p358
g10
(g11
g12
Ntp359
Rp360
(dp361
g16
g17
sg7
g358
sbsS'in accordance with'
p362
g10
(g11
g12
Ntp363
Rp364
(dp365
g16
g17
sg7
g362
sbsS'amongst'
p366
g10
(g11
g12
Ntp367
Rp368
(dp369
g16
g17
sg7
g366
sbsS'next to'
p370
g10
(g11
g12
Ntp371
Rp372
(dp373
g16
g17
sg7
g370
sbsS'with'
p374
g10
(g11
g12
Ntp375
Rp376
(dp377
g16
g17
sg7
g374
sbsS'than'
p378
g10
(g11
g12
Ntp379
Rp380
(dp381
g16
g17
sg7
g378
sbsS'he'
p382
g10
(g11
g12
Ntp383
Rp384
(dp385
g16
g62
sg7
g382
sbsS'me'
p386
g10
(g11
g12
Ntp387
Rp388
(dp389
g16
g62
sg7
g386
sbsS'absent'
p390
g10
(g11
g12
Ntp391
Rp392
(dp393
g16
g17
sg7
g390
sbsS'unlike'
p394
g10
(g11
g12
Ntp395
Rp396
(dp397
g16
g17
sg7
g394
sbsS'on to'
p398
g10
(g11
g12
Ntp399
Rp400
(dp401
g16
g17
sg7
g398
sbsS'inside'
p402
g10
(g11
g12
Ntp403
Rp404
(dp405
g16
g17
sg7
g402
sbsS'by means of'
p406
g10
(g11
g12
Ntp407
Rp408
(dp409
g16
g17
sg7
g406
sbsS'as far as'
p410
g10
(g11
g12
Ntp411
Rp412
(dp413
g16
g17
sg7
g410
sbsS'up'
p414
g10
(g11
g12
Ntp415
Rp416
(dp417
g16
g17
sg7
g414
sbsS'barring'
p418
g10
(g11
g12
Ntp419
Rp420
(dp421
g16
g17
sg7
g418
sbsS'near'
p422
g10
(g11
g12
Ntp423
Rp424
(dp425
g16
g17
sg7
g422
sbsS'due to'
p426
g10
(g11
g12
Ntp427
Rp428
(dp429
g16
g17
sg7
g426
sbsS'following'
p430
g10
(g11
g12
Ntp431
Rp432
(dp433
g16
g17
sg7
g430
sbsS'toward'
p434
g10
(g11
g12
Ntp435
Rp436
(dp437
g16
g17
sg7
g434
sbsS'my'
p438
g10
(g11
g12
Ntp439
Rp440
(dp441
g16
g67
sg7
g438
sbsS'minus'
p442
g10
(g11
g12
Ntp443
Rp444
(dp445
g16
g17
sg7
g442
sbsg206
(iknowledge
ref
p446
(dp447
g7
g8
sbsS'on account of'
p448
g10
(g11
g12
Ntp449
Rp450
(dp451
g16
g17
sg7
g448
sbsS'in spite of'
p452
g10
(g11
g12
Ntp453
Rp454
(dp455
g16
g17
sg7
g452
sbsg204
(iknowledge
ref
p456
(dp457
g7
g8
sbsS'alongside'
p458
g10
(g11
g12
Ntp459
Rp460
(dp461
g16
g17
sg7
g458
sbsg208
(iknowledge
ref
p462
(dp463
g7
g8
sbsS'it'
p464
g10
(g11
g12
Ntp465
Rp466
(dp467
g16
g62
sg7
g464
sbsS'an'
p468
g10
(g11
g12
Ntp469
Rp470
(dp471
g16
g67
sg7
g468
sbsS'as'
p472
g10
(g11
g12
Ntp473
Rp474
(dp475
g16
g17
sg7
g472
sbsS'at'
p476
g10
(g11
g12
Ntp477
Rp478
(dp479
g16
g17
sg7
g476
sbsS'in'
p480
g10
(g11
g12
Ntp481
Rp482
(dp483
g16
g17
sg7
g480
sbsS'in front of'
p484
g10
(g11
g12
Ntp485
Rp486
(dp487
g16
g17
sg7
g484
sbsS'mid'
p488
g10
(g11
g12
Ntp489
Rp490
(dp491
g16
g17
sg7
g488
sbsS'beside'
p492
g10
(g11
g12
Ntp493
Rp494
(dp495
g16
g17
sg7
g492
sbsS'till'
p496
g10
(g11
g12
Ntp497
Rp498
(dp499
g16
g17
sg7
g496
sbsS'on top of'
p500
g10
(g11
g12
Ntp501
Rp502
(dp503
g16
g17
sg7
g500
sbsS'astride'
p504
g10
(g11
g12
Ntp505
Rp506
(dp507
g16
g17
sg7
g504
sbsS'out of'
p508
g10
(g11
g12
Ntp509
Rp510
(dp511
g16
g17
sg7
g508
sbsS'you'
p512
g10
(g11
g12
Ntp513
Rp514
(dp515
g16
g62
sg7
g512
sbsS'close to'
p516
g10
(g11
g12
Ntp517
Rp518
(dp519
g16
g17
sg7
g516
sbsS'towards'
p520
g10
(g11
g12
Ntp521
Rp522
(dp523
g16
g17
sg7
g520
sbsS'opposite'
p524
g10
(g11
g12
Ntp525
Rp526
(dp527
g16
g17
sg7
g524
sbsS'after'
p528
g10
(g11
g12
Ntp529
Rp530
(dp531
g16
g17
sg7
g528
sbsS'upon'
p532
g10
(g11
g12
Ntp533
Rp534
(dp535
g16
g17
sg7
g532
sbsS'far from'
p536
g10
(g11
g12
Ntp537
Rp538
(dp539
g16
g17
sg7
g536
sbsS'in to'
p540
g10
(g11
g12
Ntp541
Rp542
(dp543
g16
g17
sg7
g540
sbsS'but'
p544
g10
(g11
g12
Ntp545
Rp546
(dp547
g16
g17
sg7
g544
sbsg67
g10
(g11
g12
Ntp548
Rp549
(dp550
g16
g67
sg7
g67
sbsS'off'
p551
g10
(g11
g12
Ntp552
Rp553
(dp554
g16
g17
sg7
g551
sbsS'prior to'
p555
g10
(g11
g12
Ntp556
Rp557
(dp558
g16
g17
sg7
g555
sbsg201
g10
(g11
g12
Ntp559
Rp560
(dp561
g16
g62
sg7
g201
sbsS'amid'
p562
g10
(g11
g12
Ntp563
Rp564
(dp565
g16
g17
sg7
g562
sbsS'failing'
p566
g10
(g11
g12
Ntp567
Rp568
(dp569
g16
g17
sg7
g566
sbsS'without'
p570
g10
(g11
g12
Ntp571
Rp572
(dp573
g16
g17
sg7
g570
sbsS'the'
p574
g10
(g11
g12
Ntp575
Rp576
(dp577
g16
g67
sg7
g574
sbsS'near to'
p578
g10
(g11
g12
Ntp579
Rp580
(dp581
g16
g17
sg7
g578
sbssb.(ilangparser
p_o_s_sent
p0
(dp1
S'full'
p2
(lp3
sS'subs'
p4
(lp5
sS'scores'
p6
(lp7
sb.