(iknowledge
knowledge
p0
(dp1
S'items'
p2
(dp3
S'name'
p4
(iknowledge
item
p5
(dp6
S'rels'
p7
(dp8
S'is john'
p9
(iknowledge
relation
p10
(dp11
S'occurence'
p12
I1
sS'begin'
p13
g5
sS'end'
p14
(iknowledge
item
p15
(dp16
g7
(dp17
S'my name'
p18
(iknowledge
relation
p19
(dp20
g12
I1
sg13
g15
sg14
(iknowledge
item
p21
(dp22
g7
(dp23
g9
(iknowledge
relation
p24
(dp25
g12
I1
sg13
g21
sg14
g15
sbsS'is'
p26
(iknowledge
relation
p27
(dp28
g12
I1
sg13
g21
sg14
(iknowledge
item
p29
(dp30
g7
(dp31
g18
(iknowledge
relation
p32
(dp33
g12
I1
sg13
g29
sg14
g21
sbsS'john'
p34
(iknowledge
relation
p35
(dp36
g12
I1
sg13
g29
sg14
(iknowledge
item
p37
(dp38
g7
(dp39
g26
(iknowledge
relation
p40
(dp41
g12
I1
sg13
g37
sg14
g29
sbsS'my name is'
p42
(iknowledge
relation
p43
(dp44
g12
I1
sg13
g37
sg14
(iknowledge
item
p45
(dp46
g7
(dp47
g34
(iknowledge
relation
p48
(dp49
g12
I1
sg13
g45
sg14
g37
sbssS'name'
p50
g42
sbsbsS'name is'
p51
(iknowledge
relation
p52
(dp53
g12
I1
sg13
g37
sg14
(iknowledge
item
p54
(dp55
g7
(dp56
g34
(iknowledge
relation
p57
(dp58
g12
I1
sg13
g54
sg14
g37
sbsS'my'
p59
(iknowledge
relation
p60
(dp61
g12
I1
sg13
g54
sg14
(iknowledge
item
p62
(dp63
g7
(dp64
g51
(iknowledge
relation
p65
(dp66
g12
I1
sg13
g62
sg14
g54
sbsg4
(iknowledge
relation
p67
(dp68
g12
I1
sg13
g62
sg14
g5
sbsS'name is john'
p69
(iknowledge
relation
p70
(dp71
g12
I1
sg13
g62
sg14
(iknowledge
item
p72
(dp73
g7
(dp74
g59
(iknowledge
relation
p75
(dp76
g12
I1
sg13
g72
sg14
g62
sbssg50
g69
sbsbssg50
g59
sbsbssg50
g51
sbsbssg50
g34
sbsbsg4
(iknowledge
relation
p77
(dp78
g12
I1
sg13
g29
sg14
g5
sbssg50
g26
sbsbssg50
g18
sbsbsg4
(iknowledge
relation
p79
(dp80
g12
I1
sg13
g15
sg14
g5
sbssg50
g9
sbsbsg26
(iknowledge
relation
p81
(dp82
g12
I1
sg13
g5
sg14
g29
sbsg59
(iknowledge
relation
p83
(dp84
g12
I1
sg13
g5
sg14
g62
sbssg50
g4
sbsg69
g72
sg18
g21
sg26
g29
sg9
g15
sg42
g45
sg51
g54
sg34
g37
sg59
g62
ssb.